target datalayout = "e-m:e-p270:32:32-p271:32:32-p272:64:64-i64:64-i128:128-f80:128-n8:16:32:64-S128"
target triple = "x86_64-pc-linux-gnu"

%struct.dt_iop_module_so_t = type { %struct.dt_action_t, ptr, ptr, ptr, ptr, ptr, ptr, ptr, ptr, ptr, ptr, ptr, ptr, ptr, ptr, ptr, ptr, ptr, ptr, ptr, ptr, ptr, ptr, ptr, ptr, ptr, ptr, ptr, ptr, ptr, ptr, ptr, ptr, ptr, ptr, ptr, ptr, ptr, ptr, ptr, ptr, ptr, ptr, ptr, ptr, ptr, ptr, ptr, ptr, ptr, ptr, ptr, ptr, ptr, ptr, ptr, ptr, [20 x i8], ptr, i32, ptr, i32, i32 }
%struct.dt_action_t = type { i32, ptr, ptr, ptr, ptr, ptr }
%struct.dt_iop_lut3d_global_data_t = type { i32, i32, i32, i32 }

@.str.6 = private unnamed_addr constant [5 x i8] c"gmic\00", align 1
@.str.71 = private unnamed_addr constant [18 x i8] c"lut3d_tetrahedral\00", align 1
@.str.72 = private unnamed_addr constant [16 x i8] c"lut3d_trilinear\00", align 1
@.str.73 = private unnamed_addr constant [14 x i8] c"lut3d_pyramid\00", align 1
@.str.74 = private unnamed_addr constant [11 x i8] c"lut3d_none\00", align 1

; Function Attrs: inlinehint nounwind uwtable
define internal i32 @dt_opencl_create_kernel(i32 noundef %0, ptr noundef %1) #8 {
  %3 = alloca i32, align 4
  %4 = alloca ptr, align 8
  store i32 %0, ptr %3, align 4, !tbaa !16
  store ptr %1, ptr %4, align 8, !tbaa !41
  ret i32 -1
}

; Function Attrs: nounwind uwtable
define void @init_global(ptr noundef %0) #0 {
  %2 = alloca ptr, align 8
  %3 = alloca i32, align 4
  %4 = alloca ptr, align 8
  %5 = alloca ptr, align 8
  %6 = alloca ptr, align 8
  store ptr %0, ptr %2, align 8, !tbaa !154
  call void @llvm.lifetime.start.p0(i64 4, ptr %3) #13
  store i32 28, ptr %3, align 4, !tbaa !16
  call void @llvm.lifetime.start.p0(i64 8, ptr %4) #13
  %7 = call noalias ptr @malloc(i64 noundef 16) #14
  store ptr %7, ptr %4, align 8, !tbaa !155
  %8 = load ptr, ptr %4, align 8, !tbaa !155
  %9 = load ptr, ptr %2, align 8, !tbaa !154
  %10 = getelementptr inbounds nuw %struct.dt_iop_module_so_t, ptr %9, i32 0, i32 58
  store ptr %8, ptr %10, align 8, !tbaa !157
  %11 = call i32 @dt_opencl_create_kernel(i32 noundef 28, ptr noundef @.str.71)
  %12 = load ptr, ptr %4, align 8, !tbaa !155
  %13 = getelementptr inbounds nuw %struct.dt_iop_lut3d_global_data_t, ptr %12, i32 0, i32 0
  store i32 %11, ptr %13, align 4, !tbaa !161
  %14 = call i32 @dt_opencl_create_kernel(i32 noundef 28, ptr noundef @.str.72)
  %15 = load ptr, ptr %4, align 8, !tbaa !155
  %16 = getelementptr inbounds nuw %struct.dt_iop_lut3d_global_data_t, ptr %15, i32 0, i32 1
  store i32 %14, ptr %16, align 4, !tbaa !163
  %17 = call i32 @dt_opencl_create_kernel(i32 noundef 28, ptr noundef @.str.73)
  %18 = load ptr, ptr %4, align 8, !tbaa !155
  %19 = getelementptr inbounds nuw %struct.dt_iop_lut3d_global_data_t, ptr %18, i32 0, i32 2
  store i32 %17, ptr %19, align 4, !tbaa !164
  %20 = call i32 @dt_opencl_create_kernel(i32 noundef 28, ptr noundef @.str.74)
  %21 = load ptr, ptr %4, align 8, !tbaa !155
  %22 = getelementptr inbounds nuw %struct.dt_iop_lut3d_global_data_t, ptr %21, i32 0, i32 3
  store i32 %20, ptr %22, align 4, !tbaa !165
  call void @llvm.lifetime.start.p0(i64 8, ptr %5) #13
  %23 = call ptr @g_get_user_cache_dir()
  %24 = call noalias ptr (ptr, ...) @g_build_filename(ptr noundef %23, ptr noundef @.str.6, ptr noundef null)
  store ptr %24, ptr %5, align 8, !tbaa !41
  call void @llvm.lifetime.start.p0(i64 8, ptr %6) #13
  %25 = load ptr, ptr %5, align 8, !tbaa !41
  %26 = call ptr @dt_loc_init_generic(ptr noundef %25, ptr noundef null, ptr noundef null)
  store ptr %26, ptr %6, align 8, !tbaa !41
  %27 = load ptr, ptr %5, align 8, !tbaa !41
  call void @g_free(ptr noundef %27)
  %28 = load ptr, ptr %6, align 8, !tbaa !41
  call void @g_free(ptr noundef %28)
  call void @llvm.lifetime.end.p0(i64 8, ptr %6) #13
  call void @llvm.lifetime.end.p0(i64 8, ptr %5) #13
  call void @llvm.lifetime.end.p0(i64 8, ptr %4) #13
  call void @llvm.lifetime.end.p0(i64 4, ptr %3) #13
  ret void
}