; Function Attrs: nounwind uwtable
define void @init_global(ptr noundef writeonly captures(none) initializes((520, 528)) %0) local_unnamed_addr #1 {
  %2 = tail call noalias dereferenceable_or_null(16) ptr @malloc(i64 noundef 16) #26
  %3 = getelementptr inbounds nuw i8, ptr %0, i64 520
  store ptr %2, ptr %3, align 8, !tbaa !129
  tail call void @llvm.memset.p0.i64(ptr noundef nonnull align 4 dereferenceable(16) %2, i8 -1, i64 16, i1 false)
  %4 = tail call ptr @g_get_user_cache_dir() #25
  %5 = tail call noalias ptr (ptr, ...) @g_build_filename(ptr noundef %4, ptr noundef nonnull @.str.6, ptr noundef null) #25
  %6 = tail call ptr @dt_loc_init_generic(ptr noundef %5, ptr noundef null, ptr noundef null) #25
  tail call void @g_free(ptr noundef %5) #25
  tail call void @g_free(ptr noundef %6) #25
  ret void
}